; ModuleID = '19/91.c'
source_filename = "19/91.c"
target datalayout = "e-m:e-p270:32:32-p271:32:32-p272:64:64-i64:64-f80:128-n8:16:32:64-S128"
target triple = "x86_64-pc-linux-gnu"

@__const.main.str5 = private unnamed_addr constant [2 x i8] c" \00", align 1
@.str = private unnamed_addr constant [3 x i8] c"%s\00", align 1

; Function Attrs: noinline nounwind uwtable
define dso_local void @main() #0 {
  %1 = alloca [1000 x i8], align 16
  %2 = alloca [100 x i8], align 16
  %3 = alloca [100 x i8], align 16
  %4 = alloca [100 x i8], align 16
  %5 = alloca [2 x i8], align 1
  %6 = alloca [100 x i8], align 16
  %7 = alloca i32, align 4
  %8 = alloca i32, align 4
  %9 = bitcast [2 x i8]* %5 to i8*
  call void @llvm.memcpy.p0i8.p0i8.i64(i8* align 1 %9, i8* align 1 getelementptr inbounds ([2 x i8], [2 x i8]* @__const.main.str5, i32 0, i32 0), i64 2, i1 false)
  %10 = bitcast [100 x i8]* %6 to i8*
  call void @llvm.memset.p0i8.i64(i8* align 16 %10, i8 0, i64 100, i1 false)
  store i32 0, i32* %8, align 4
  %11 = getelementptr inbounds [1000 x i8], [1000 x i8]* %1, i64 0, i64 0
  %12 = call i32 (i8*, ...) bitcast (i32 (...)* @gets to i32 (i8*, ...)*)(i8* %11)
  %13 = getelementptr inbounds [100 x i8], [100 x i8]* %2, i64 0, i64 0
  %14 = call i32 (i8*, ...) bitcast (i32 (...)* @gets to i32 (i8*, ...)*)(i8* %13)
  %15 = getelementptr inbounds [100 x i8], [100 x i8]* %3, i64 0, i64 0
  %16 = call i32 (i8*, ...) bitcast (i32 (...)* @gets to i32 (i8*, ...)*)(i8* %15)
  store i32 0, i32* %7, align 4
  br label %17

17:                                               ; preds = %62, %0
  %18 = load i32, i32* %7, align 4
  %19 = sext i32 %18 to i64
  %20 = getelementptr inbounds [1000 x i8], [1000 x i8]* %1, i64 0, i64 %19
  %21 = load i8, i8* %20, align 1
  %22 = sext i8 %21 to i32
  %23 = icmp ne i32 %22, 0
  br i1 %23, label %24, label %65

24:                                               ; preds = %17
  %25 = load i32, i32* %7, align 4
  %26 = sext i32 %25 to i64
  %27 = getelementptr inbounds [1000 x i8], [1000 x i8]* %1, i64 0, i64 %26
  %28 = load i8, i8* %27, align 1
  %29 = sext i8 %28 to i32
  %30 = icmp ne i32 %29, 32
  br i1 %30, label %31, label %41

31:                                               ; preds = %24
  %32 = load i32, i32* %7, align 4
  %33 = sext i32 %32 to i64
  %34 = getelementptr inbounds [1000 x i8], [1000 x i8]* %1, i64 0, i64 %33
  %35 = load i8, i8* %34, align 1
  %36 = load i32, i32* %8, align 4
  %37 = sext i32 %36 to i64
  %38 = getelementptr inbounds [100 x i8], [100 x i8]* %4, i64 0, i64 %37
  store i8 %35, i8* %38, align 1
  %39 = load i32, i32* %8, align 4
  %40 = add nsw i32 %39, 1
  store i32 %40, i32* %8, align 4
  br label %61

41:                                               ; preds = %24
  %42 = load i32, i32* %8, align 4
  %43 = sext i32 %42 to i64
  %44 = getelementptr inbounds [100 x i8], [100 x i8]* %4, i64 0, i64 %43
  store i8 0, i8* %44, align 1
  store i32 0, i32* %8, align 4
  %45 = getelementptr inbounds [100 x i8], [100 x i8]* %4, i64 0, i64 0
  %46 = getelementptr inbounds [100 x i8], [100 x i8]* %2, i64 0, i64 0
  %47 = call i32 @strcmp(i8* %45, i8* %46) #5
  %48 = icmp eq i32 %47, 0
  br i1 %48, label %49, label %53

49:                                               ; preds = %41
  %50 = getelementptr inbounds [100 x i8], [100 x i8]* %6, i64 0, i64 0
  %51 = getelementptr inbounds [100 x i8], [100 x i8]* %3, i64 0, i64 0
  %52 = call i8* @strcat(i8* %50, i8* %51) #6
  br label %57

53:                                               ; preds = %41
  %54 = getelementptr inbounds [100 x i8], [100 x i8]* %6, i64 0, i64 0
  %55 = getelementptr inbounds [100 x i8], [100 x i8]* %4, i64 0, i64 0
  %56 = call i8* @strcat(i8* %54, i8* %55) #6
  br label %57

57:                                               ; preds = %53, %49
  %58 = getelementptr inbounds [100 x i8], [100 x i8]* %6, i64 0, i64 0
  %59 = getelementptr inbounds [2 x i8], [2 x i8]* %5, i64 0, i64 0
  %60 = call i8* @strcat(i8* %58, i8* %59) #6
  br label %61

61:                                               ; preds = %57, %31
  br label %62

62:                                               ; preds = %61
  %63 = load i32, i32* %7, align 4
  %64 = add nsw i32 %63, 1
  store i32 %64, i32* %7, align 4
  br label %17

65:                                               ; preds = %17
  %66 = load i32, i32* %8, align 4
  %67 = sext i32 %66 to i64
  %68 = getelementptr inbounds [100 x i8], [100 x i8]* %4, i64 0, i64 %67
  store i8 0, i8* %68, align 1
  %69 = getelementptr inbounds [100 x i8], [100 x i8]* %4, i64 0, i64 0
  %70 = getelementptr inbounds [100 x i8], [100 x i8]* %2, i64 0, i64 0
  %71 = call i32 @strcmp(i8* %69, i8* %70) #5
  %72 = icmp eq i32 %71, 0
  br i1 %72, label %73, label %77

73:                                               ; preds = %65
  %74 = getelementptr inbounds [100 x i8], [100 x i8]* %6, i64 0, i64 0
  %75 = getelementptr inbounds [100 x i8], [100 x i8]* %3, i64 0, i64 0
  %76 = call i8* @strcat(i8* %74, i8* %75) #6
  br label %81

77:                                               ; preds = %65
  %78 = getelementptr inbounds [100 x i8], [100 x i8]* %6, i64 0, i64 0
  %79 = getelementptr inbounds [100 x i8], [100 x i8]* %4, i64 0, i64 0
  %80 = call i8* @strcat(i8* %78, i8* %79) #6
  br label %81

81:                                               ; preds = %77, %73
  %82 = getelementptr inbounds [100 x i8], [100 x i8]* %6, i64 0, i64 0
  %83 = call i32 (i8*, ...) @printf(i8* getelementptr inbounds ([3 x i8], [3 x i8]* @.str, i64 0, i64 0), i8* %82)
  ret void
}

; Function Attrs: argmemonly nounwind willreturn
declare void @llvm.memcpy.p0i8.p0i8.i64(i8* noalias nocapture writeonly, i8* noalias nocapture readonly, i64, i1 immarg) #1

; Function Attrs: argmemonly nounwind willreturn
declare void @llvm.memset.p0i8.i64(i8* nocapture writeonly, i8, i64, i1 immarg) #1

declare dso_local i32 @gets(...) #2

; Function Attrs: nounwind readonly
declare dso_local i32 @strcmp(i8*, i8*) #3

; Function Attrs: nounwind
declare dso_local i8* @strcat(i8*, i8*) #4

declare dso_local i32 @printf(i8*, ...) #2


!llvm.module.flags = !{!0}
!llvm.ident = !{!1}

!0 = !{i32 1, !"wchar_size", i32 4}
!1 = !{!"clang version 10.0.0-4ubuntu1 "}
